; Function Attrs: mustprogress uwtable
define void @ulocbld_setLanguageTag_77(ptr noundef %0, ptr noundef %1, i32 noundef %2) local_unnamed_addr #1 {
  %4 = alloca %"class.icu_77::StringPiece", align 8
  %5 = icmp eq ptr %0, null
  br i1 %5, label %15, label %6

6:                                                ; preds = %3
  %7 = icmp slt i32 %2, 0
  br i1 %7, label %8, label %9

8:                                                ; preds = %6
  call void @_ZN6icu_7711StringPieceC1EPKc(ptr noundef nonnull align 8 dereferenceable(12) %4, ptr noundef %1)
  %.pre = load ptr, ptr %4, align 8
  %.phi.trans.insert = getelementptr inbounds nuw i8, ptr %4, i64 8
  %.pre6 = load i32, ptr %.phi.trans.insert, align 8
  br label %11

9:                                                ; preds = %6
  store ptr %1, ptr %4, align 8, !tbaa !18
  %10 = getelementptr inbounds nuw i8, ptr %4, i64 8
  store i32 %2, ptr %10, align 8, !tbaa !20
  br label %11

11:                                               ; preds = %9, %8
  %12 = phi i32 [ %2, %9 ], [ %.pre6, %8 ]
  %13 = phi ptr [ %1, %9 ], [ %.pre, %8 ]
  %14 = call noundef nonnull align 8 dereferenceable(48) ptr @_ZN6icu_7713LocaleBuilder14setLanguageTagENS_11StringPieceE(ptr noundef nonnull align 8 dereferenceable(48) %0, ptr %13, i32 %12)
  br label %15

15:                                               ; preds = %3, %11
  ret void
}